ccopy_reg
_reconstructor
p0
(crequests.cookies
RequestsCookieJar
p1
c__builtin__
object
p2
Ntp3
Rp4
(dp5
S'_now'
p6
I1408992104
sS'_policy'
p7
(icookielib
DefaultCookiePolicy
p8
(dp9
S'strict_rfc2965_unverifiable'
p10
I01
sS'strict_ns_domain'
p11
I0
sS'_allowed_domains'
p12
NsS'rfc2109_as_netscape'
p13
NsS'rfc2965'
p14
I00
sS'strict_domain'
p15
I00
sS'_now'
p16
I1408992104
sS'strict_ns_set_path'
p17
I00
sS'strict_ns_unverifiable'
p18
I00
sS'strict_ns_set_initial_dollar'
p19
I00
sS'hide_cookie2'
p20
I00
sS'_blocked_domains'
p21
(tsS'netscape'
p22
I01
sbsS'_cookies'
p23
(dp24
S''
p25
(dp26
S'/'
p27
(dp28
S'ruid'
p29
(icookielib
Cookie
p30
(dp31
S'comment'
p32
NsS'domain'
p33
g25
sS'name'
p34
g29
sS'domain_initial_dot'
p35
I00
sS'expires'
p36
NsS'value'
p37
S'rv0iBkqM+1NNBwAAASvoDw=='
p38
sS'domain_specified'
p39
I00
sS'_rest'
p40
(dp41
S'HttpOnly'
p42
NssS'version'
p43
I0
sS'port_specified'
p44
I00
sS'rfc2109'
p45
I00
sS'discard'
p46
I01
sS'path_specified'
p47
I01
sS'path'
p48
S'/'
p49
sS'port'
p50
NsS'comment_url'
p51
NsS'secure'
p52
I00
sbsS'bbforum_view'
p53
(icookielib
Cookie
p54
(dp55
g32
Nsg33
g25
sg34
S'bbforum_view'
p56
sg35
I00
sg36
Nsg37
S'16451f58af2dd94bf41ae27b28cee8659ec3f478a-1-%7Bi-11_i-1408994908_%7D'
p57
sg39
I00
sg40
(dp58
S'HttpOnly'
p59
Nssg43
I0
sg44
I00
sg45
I00
sg46
I01
sg47
I01
sg48
S'/'
p60
sg50
Nsg51
Nsg52
I00
sbsS'PREF'
p61
(icookielib
Cookie
p62
(dp63
g32
Nsg33
g25
sg34
S'PREF'
p64
sg35
I00
sg36
Nsg37
S'ID=6bb3efdd1927616c:U=f7c7d0bf665f823b:FF=0:NW=1:TM=1408992162:LM=1408992299:S=qQaeO3zpPe6nJh4o'
p65
sg39
I00
sg40
(dp66
S'HttpOnly'
p67
Nssg43
I0
sg44
I00
sg45
I00
sg46
I01
sg47
I01
sg48
S'/'
p68
sg50
Nsg51
Nsg52
I00
sbsS'socauth_from_page'
p69
(icookielib
Cookie
p70
(dp71
g32
Nsg33
g25
sg34
S'socauth_from_page'
p72
sg35
I00
sg36
Nsg37
S'%2F'
p73
sg39
I00
sg40
(dp74
S'HttpOnly'
p75
Nssg43
I0
sg44
I00
sg45
I00
sg46
I01
sg47
I01
sg48
S'/'
p76
sg50
Nsg51
Nsg52
I00
sbsS'remixrefkey'
p77
(icookielib
Cookie
p78
(dp79
g32
Nsg33
g25
sg34
g77
sg35
I00
sg36
Nsg37
S'a3c970c108531045aa'
p80
sg39
I00
sg40
(dp81
S'HttpOnly'
p82
Nssg43
I0
sg44
I00
sg45
I00
sg46
I01
sg47
I01
sg48
S'/'
p83
sg50
Nsg51
Nsg52
I00
sbsS'yandexuid'
p84
(icookielib
Cookie
p85
(dp86
g32
Nsg33
g25
sg34
g84
sg35
I00
sg36
Nsg37
S'195277241408992649'
p87
sg39
I00
sg40
(dp88
S'HttpOnly'
p89
Nssg43
I0
sg44
I00
sg45
I00
sg46
I01
sg47
I01
sg48
S'/'
p90
sg50
Nsg51
Nsg52
I00
sbsS'.c'
p91
(icookielib
Cookie
p92
(dp93
g32
Nsg33
g25
sg34
g91
sg35
I00
sg36
Nsg37
S'USD'
p94
sg39
I00
sg40
(dp95
S'HttpOnly'
p96
Nssg43
I0
sg44
I00
sg45
I00
sg46
I01
sg47
I01
sg48
S'/'
p97
sg50
Nsg51
Nsg52
I00
sbsS'bblastactivity'
p98
(icookielib
Cookie
p99
(dp100
g32
Nsg33
g25
sg34
S'bblastactivity'
p101
sg35
I00
sg36
Nsg37
S'0'
p102
sg39
I00
sg40
(dp103
S'HttpOnly'
p104
Nssg43
I0
sg44
I00
sg45
I00
sg46
I01
sg47
I01
sg48
S'/'
p105
sg50
Nsg51
Nsg52
I00
sbsS'NID'
p106
(icookielib
Cookie
p107
(dp108
g32
Nsg33
g25
sg34
g106
sg35
I00
sg36
Nsg37
S'67=ZKhCAsUilvmkP6eti387SBjkwSLr3uKNp9dJxCSeitcAhPAEs63HiDyyxmCM9kVZg-RbMrB4GWc0CUCOHM9N40ZX8Wjr_skE-8kggYdaGO-62S72onJfbjDWa1DGQ3nj'
p109
sg39
I00
sg40
(dp110
S'HttpOnly'
p111
Nssg43
I0
sg44
I00
sg45
I00
sg46
I01
sg47
I01
sg48
g27
sg50
Nsg51
Nsg52
I00
sbsS'SessionId'
p112
(icookielib
Cookie
p113
(dp114
g32
Nsg33
g25
sg34
g112
sg35
I00
sg36
Nsg37
S'78ef9a175ded4783b395582008df3c8c'
p115
sg39
I00
sg40
(dp116
g96
Nssg43
I0
sg44
I00
sg45
I00
sg46
I01
sg47
I01
sg48
g97
sg50
Nsg51
Nsg52
I00
sbsS'PHPSESSID'
p117
(icookielib
Cookie
p118
(dp119
g32
Nsg33
g25
sg34
S'PHPSESSID'
p120
sg35
I00
sg36
Nsg37
S'3ldu3illnakurqv6tjpklhrd22'
p121
sg39
I00
sg40
(dp122
S'HttpOnly'
p123
Nssg43
I0
sg44
I00
sg45
I00
sg46
I01
sg47
I01
sg48
S'/'
p124
sg50
Nsg51
Nsg52
I00
sbsS'bblastvisit'
p125
(icookielib
Cookie
p126
(dp127
g32
Nsg33
g25
sg34
S'bblastvisit'
p128
sg35
I00
sg36
Nsg37
S'1408994420'
p129
sg39
I00
sg40
(dp130
g104
Nssg43
I0
sg44
I00
sg45
I00
sg46
I01
sg47
I01
sg48
g105
sg50
Nsg51
Nsg52
I00
sbsS'.782568675'
p131
(icookielib
Cookie
p132
(dp133
g32
Nsg33
g25
sg34
g131
sg35
I00
sg36
Nsg37
S'RU'
p134
sg39
I00
sg40
(dp135
g96
Nssg43
I0
sg44
I00
sg45
I00
sg46
I01
sg47
I01
sg48
g97
sg50
Nsg51
Nsg52
I00
sbsS'remixlang'
p136
(icookielib
Cookie
p137
(dp138
g32
Nsg33
g25
sg34
g136
sg35
I00
sg36
Nsg37
S'0'
p139
sg39
I00
sg40
(dp140
g82
Nssg43
I0
sg44
I00
sg45
I00
sg46
I01
sg47
I01
sg48
g83
sg50
Nsg51
Nsg52
I00
sbsS'top100rb'
p141
(icookielib
Cookie
p142
(dp143
g32
Nsg33
g25
sg34
g141
sg35
I00
sg36
Nsg37
S'NDkrOTI='
p144
sg39
I00
sg40
(dp145
g42
Nssg43
I0
sg44
I00
sg45
I00
sg46
I01
sg47
I01
sg48
g49
sg50
Nsg51
Nsg52
I00
sbsS'hsec_id'
p146
(icookielib
Cookie
p147
(dp148
g32
Nsg33
g25
sg34
g146
sg35
I00
sg36
Nsg37
S'f102e7df1b10a2508d56d0cd3014cb6f'
p149
sg39
I00
sg40
(dp150
g123
Nssg43
I0
sg44
I00
sg45
I00
sg46
I01
sg47
I01
sg48
g124
sg50
Nsg51
Nsg52
I00
sbsS'bbsessionhash'
p151
(icookielib
Cookie
p152
(dp153
g32
Nsg33
g25
sg34
g151
sg35
I00
sg36
Nsg37
S'93cceb3d1be0fe306b1b1a4444ba3722'
p154
sg39
I00
sg40
(dp155
S'HttpOnly'
p156
Nssg43
I0
sg44
I00
sg45
I00
sg46
I01
sg47
I01
sg48
S'/'
p157
sg50
Nsg51
Nsg52
I00
sbssssb.